target datalayout = "e-m:e-p270:32:32-p271:32:32-p272:64:64-i64:64-i128:128-f80:128-n8:16:32:64-S128"
target triple = "x86_64-pc-linux-gnu"

%struct.URLContext = type { ptr, ptr, ptr, ptr, i32, i32, i32, i32, %struct.AVIOInterruptCB, i64, ptr, ptr, i32 }
%struct.AVIOInterruptCB = type { ptr, ptr }
%struct.DataContext = type { ptr, ptr, i64, i64 }

; Function Attrs: nounwind uwtable
define internal i32 @data_read(ptr noundef %0, ptr noundef %1, i32 noundef %2) #1 {
  %4 = alloca i32, align 4
  %5 = alloca ptr, align 8
  %6 = alloca ptr, align 8
  %7 = alloca i32, align 4
  %8 = alloca ptr, align 8
  %9 = alloca i32, align 4
  store ptr %0, ptr %5, align 8, !tbaa !4
  store ptr %1, ptr %6, align 8, !tbaa !9
  store i32 %2, ptr %7, align 4, !tbaa !11
  call void @llvm.lifetime.start.p0(i64 8, ptr %8) #7
  %10 = load ptr, ptr %5, align 8, !tbaa !4
  %11 = getelementptr inbounds nuw %struct.URLContext, ptr %10, i32 0, i32 2
  %12 = load ptr, ptr %11, align 8, !tbaa !13
  store ptr %12, ptr %8, align 8, !tbaa !19
  %13 = load ptr, ptr %8, align 8, !tbaa !19
  %14 = getelementptr inbounds nuw %struct.DataContext, ptr %13, i32 0, i32 3
  %15 = load i64, ptr %14, align 8, !tbaa !27
  %16 = load ptr, ptr %8, align 8, !tbaa !19
  %17 = getelementptr inbounds nuw %struct.DataContext, ptr %16, i32 0, i32 2
  %18 = load i64, ptr %17, align 8, !tbaa !26
  %19 = icmp uge i64 %15, %18
  br i1 %19, label %20, label %21

20:                                               ; preds = %3
  store i32 -541478725, ptr %4, align 4
  store i32 1, ptr %9, align 4
  br label %63

21:                                               ; preds = %3
  %22 = load i32, ptr %7, align 4, !tbaa !11
  %23 = sext i32 %22 to i64
  %24 = load ptr, ptr %8, align 8, !tbaa !19
  %25 = getelementptr inbounds nuw %struct.DataContext, ptr %24, i32 0, i32 2
  %26 = load i64, ptr %25, align 8, !tbaa !26
  %27 = load ptr, ptr %8, align 8, !tbaa !19
  %28 = getelementptr inbounds nuw %struct.DataContext, ptr %27, i32 0, i32 3
  %29 = load i64, ptr %28, align 8, !tbaa !27
  %30 = sub i64 %26, %29
  %31 = icmp ugt i64 %23, %30
  br i1 %31, label %32, label %40

32:                                               ; preds = %21
  %33 = load ptr, ptr %8, align 8, !tbaa !19
  %34 = getelementptr inbounds nuw %struct.DataContext, ptr %33, i32 0, i32 2
  %35 = load i64, ptr %34, align 8, !tbaa !26
  %36 = load ptr, ptr %8, align 8, !tbaa !19
  %37 = getelementptr inbounds nuw %struct.DataContext, ptr %36, i32 0, i32 3
  %38 = load i64, ptr %37, align 8, !tbaa !27
  %39 = sub i64 %35, %38
  br label %43

40:                                               ; preds = %21
  %41 = load i32, ptr %7, align 4, !tbaa !11
  %42 = sext i32 %41 to i64
  br label %43

43:                                               ; preds = %40, %32
  %44 = phi i64 [ %39, %32 ], [ %42, %40 ]
  %45 = trunc i64 %44 to i32
  store i32 %45, ptr %7, align 4, !tbaa !11
  %46 = load ptr, ptr %6, align 8, !tbaa !9
  %47 = load ptr, ptr %8, align 8, !tbaa !19
  %48 = getelementptr inbounds nuw %struct.DataContext, ptr %47, i32 0, i32 0
  %49 = load ptr, ptr %48, align 8, !tbaa !25
  %50 = load ptr, ptr %8, align 8, !tbaa !19
  %51 = getelementptr inbounds nuw %struct.DataContext, ptr %50, i32 0, i32 3
  %52 = load i64, ptr %51, align 8, !tbaa !27
  %53 = getelementptr inbounds nuw i8, ptr %49, i64 %52
  %54 = load i32, ptr %7, align 4, !tbaa !11
  %55 = sext i32 %54 to i64
  call void @llvm.memcpy.p0.p0.i64(ptr align 1 %46, ptr align 1 %53, i64 %55, i1 false)
  %56 = load i32, ptr %7, align 4, !tbaa !11
  %57 = sext i32 %56 to i64
  %58 = load ptr, ptr %8, align 8, !tbaa !19
  %59 = getelementptr inbounds nuw %struct.DataContext, ptr %58, i32 0, i32 3
  %60 = load i64, ptr %59, align 8, !tbaa !27
  %61 = add i64 %60, %57
  store i64 %61, ptr %59, align 8, !tbaa !27
  %62 = load i32, ptr %7, align 4, !tbaa !11
  store i32 %62, ptr %4, align 4
  store i32 1, ptr %9, align 4
  br label %63

63:                                               ; preds = %43, %20
  call void @llvm.lifetime.end.p0(i64 8, ptr %8) #7
  %64 = load i32, ptr %4, align 4
  ret i32 %64
}