; Function Attrs: mustprogress nofree norecurse nosync nounwind willreturn memory(readwrite, inaccessiblemem: none) uwtable
define internal i32 @data_read(ptr noundef readonly captures(none) %0, ptr noundef writeonly captures(none) %1, i32 noundef %2) #1 {
  %4 = getelementptr inbounds nuw i8, ptr %0, i64 16
  %5 = load ptr, ptr %4, align 8, !tbaa !9
  %6 = getelementptr inbounds nuw i8, ptr %5, i64 24
  %7 = load i64, ptr %6, align 8, !tbaa !22
  %8 = getelementptr inbounds nuw i8, ptr %5, i64 16
  %9 = load i64, ptr %8, align 8, !tbaa !21
  %.not = icmp ult i64 %7, %9
  br i1 %.not, label %10, label %20

10:                                               ; preds = %3
  %11 = sext i32 %2 to i64
  %12 = sub nuw i64 %9, %7
  %13 = tail call i64 @llvm.umin.i64(i64 %12, i64 %11)
  %14 = trunc i64 %13 to i32
  %15 = load ptr, ptr %5, align 8, !tbaa !20
  %16 = getelementptr inbounds nuw i8, ptr %15, i64 %7
  %sext = shl i64 %13, 32
  %17 = ashr exact i64 %sext, 32
  tail call void @llvm.memcpy.p0.p0.i64(ptr align 1 %1, ptr align 1 %16, i64 %17, i1 false)
  %18 = load i64, ptr %6, align 8, !tbaa !22
  %19 = add i64 %18, %17
  store i64 %19, ptr %6, align 8, !tbaa !22
  br label %20

20:                                               ; preds = %3, %10
  %.0 = phi i32 [ %14, %10 ], [ -541478725, %3 ]
  ret i32 %.0
}